target datalayout = "e-m:e-p270:32:32-p271:32:32-p272:64:64-i64:64-i128:128-f80:128-n8:16:32:64-S128"
target triple = "x86_64-pc-linux-gnu"

%"class.Eigen::DenseStorage" = type { %"struct.Eigen::internal::plain_array" }
%"struct.Eigen::internal::plain_array" = type { [3 x float] }
%"class.Eigen::PlainObjectBase.12" = type { %"class.Eigen::DenseStorage" }

; Function Attrs: mustprogress nounwind uwtable
define linkonce_odr hidden noundef ptr @_ZNK5Eigen12DenseStorageIfLi3ELi3ELi1ELi0EE4dataEv(ptr noundef nonnull align 4 dereferenceable(12) %0) #5 comdat align 2 {
  %2 = alloca ptr, align 8
  store ptr %0, ptr %2, align 8
  %3 = load ptr, ptr %2, align 8
  %4 = getelementptr inbounds %"class.Eigen::DenseStorage", ptr %3, i32 0, i32 0
  %5 = getelementptr inbounds %"struct.Eigen::internal::plain_array", ptr %4, i32 0, i32 0
  %6 = getelementptr inbounds [3 x float], ptr %5, i64 0, i64 0
  ret ptr %6
}

; Function Attrs: mustprogress nounwind uwtable
define linkonce_odr dso_local noundef zeroext i1 @_ZSt8isfinitef(float noundef %0) #5 comdat {
  %2 = alloca float, align 4
  store float %0, ptr %2, align 4
  %3 = load float, ptr %2, align 4
  %4 = call i1 @llvm.is.fpclass.f32(float %3, i32 504)
  ret i1 %4
}

; Function Attrs: mustprogress nounwind uwtable
define linkonce_odr hidden noundef nonnull align 4 dereferenceable(4) ptr @_ZNK5Eigen15PlainObjectBaseINS_5ArrayIfLi3ELi1ELi0ELi3ELi1EEEE5coeffEl(ptr noundef nonnull align 4 dereferenceable(12) %0, i64 noundef %1) #5 comdat align 2 {
  %3 = alloca ptr, align 8
  %4 = alloca i64, align 8
  store ptr %0, ptr %3, align 8
  store i64 %1, ptr %4, align 8
  %5 = load ptr, ptr %3, align 8
  %6 = getelementptr inbounds %"class.Eigen::PlainObjectBase.12", ptr %5, i32 0, i32 0
  %7 = call noundef ptr @_ZNK5Eigen12DenseStorageIfLi3ELi3ELi1ELi0EE4dataEv(ptr noundef nonnull align 4 dereferenceable(12) %6)
  %8 = load i64, ptr %4, align 8
  %9 = getelementptr inbounds float, ptr %7, i64 %8
  ret ptr %9
}

; Function Attrs: mustprogress uwtable
define hidden noundef zeroext i1 @_ZNK4nori7Color3f7isValidEv(ptr noundef nonnull align 4 dereferenceable(12) %0) #4 align 2 {
  %2 = alloca i1, align 1
  %3 = alloca ptr, align 8
  %4 = alloca i32, align 4
  %5 = alloca float, align 4
  store ptr %0, ptr %3, align 8
  %6 = load ptr, ptr %3, align 8
  store i32 0, ptr %4, align 4
  br label %7

7:                                                ; preds = %22, %1
  %8 = load i32, ptr %4, align 4
  %9 = icmp slt i32 %8, 3
  br i1 %9, label %10, label %25

10:                                               ; preds = %7
  %11 = load i32, ptr %4, align 4
  %12 = sext i32 %11 to i64
  %13 = call noundef nonnull align 4 dereferenceable(4) ptr @_ZNK5Eigen15PlainObjectBaseINS_5ArrayIfLi3ELi1ELi0ELi3ELi1EEEE5coeffEl(ptr noundef nonnull align 4 dereferenceable(12) %6, i64 noundef %12)
  %14 = load float, ptr %13, align 4
  store float %14, ptr %5, align 4
  %15 = load float, ptr %5, align 4
  %16 = fcmp olt float %15, 0.000000e+00
  br i1 %16, label %20, label %17

17:                                               ; preds = %10
  %18 = load float, ptr %5, align 4
  %19 = call noundef zeroext i1 @_ZSt8isfinitef(float noundef %18)
  br i1 %19, label %21, label %20

20:                                               ; preds = %17, %10
  store i1 false, ptr %2, align 1
  br label %26

21:                                               ; preds = %17
  br label %22

22:                                               ; preds = %21
  %23 = load i32, ptr %4, align 4
  %24 = add nsw i32 %23, 1
  store i32 %24, ptr %4, align 4
  br label %7, !llvm.loop !14

25:                                               ; preds = %7
  store i1 true, ptr %2, align 1
  br label %26

26:                                               ; preds = %25, %20
  %27 = load i1, ptr %2, align 1
  ret i1 %27
}